target datalayout = "e-m:e-p270:32:32-p271:32:32-p272:64:64-i64:64-i128:128-f80:128-n8:16:32:64-S128"
target triple = "x86_64-pc-linux-gnu"

%"class.google::protobuf::io::EpsCopyOutputStream" = type <{ ptr, ptr, [32 x i8], ptr, i8, i8, i8, [5 x i8] }>

; Function Attrs: mustprogress uwtable
define hidden noundef i64 @_ZNK6google8protobuf2io19EpsCopyOutputStream9ByteCountEPh(ptr noundef nonnull align 8 dereferenceable(59) %0, ptr noundef %1) #5 align 2 {
  %3 = alloca ptr, align 8
  %4 = alloca ptr, align 8
  %5 = alloca i32, align 4
  store ptr %0, ptr %3, align 8, !tbaa !76
  store ptr %1, ptr %4, align 8, !tbaa !50
  %6 = load ptr, ptr %3, align 8
  call void @llvm.lifetime.start.p0(i64 4, ptr %5) #3
  %7 = getelementptr inbounds nuw %"class.google::protobuf::io::EpsCopyOutputStream", ptr %6, i32 0, i32 0
  %8 = load ptr, ptr %7, align 8, !tbaa !82
  %9 = load ptr, ptr %4, align 8, !tbaa !50
  %10 = ptrtoint ptr %8 to i64
  %11 = ptrtoint ptr %9 to i64
  %12 = sub i64 %10, %11
  %13 = getelementptr inbounds nuw %"class.google::protobuf::io::EpsCopyOutputStream", ptr %6, i32 0, i32 1
  %14 = load ptr, ptr %13, align 8, !tbaa !83
  %15 = icmp ne ptr %14, null
  %16 = select i1 %15, i32 0, i32 16
  %17 = sext i32 %16 to i64
  %18 = add nsw i64 %12, %17
  %19 = trunc i64 %18 to i32
  store i32 %19, ptr %5, align 4, !tbaa !18
  %20 = getelementptr inbounds nuw %"class.google::protobuf::io::EpsCopyOutputStream", ptr %6, i32 0, i32 3
  %21 = load ptr, ptr %20, align 8, !tbaa !78
  %22 = load ptr, ptr %21, align 8, !tbaa !19
  %23 = getelementptr inbounds ptr, ptr %22, i64 4
  %24 = load ptr, ptr %23, align 8
  %25 = call noundef i64 %24(ptr noundef nonnull align 8 dereferenceable(8) %21)
  %26 = load i32, ptr %5, align 4, !tbaa !18
  %27 = sext i32 %26 to i64
  %28 = sub nsw i64 %25, %27
  call void @llvm.lifetime.end.p0(i64 4, ptr %5) #3
  ret i64 %28
}